Microchip MPLAB XC8 Compiler V1.36 ()

Linker command line:

--edf=C:\Program Files (x86)\Microchip\xc8\v1.36\dat\en_msgs.txt -cs \
  -h+dist/default/production\minuteur.production.sym \
  --cmf=dist/default/production\minuteur.production.cmf -z -Q16F18345 \
  -oC:\Users\Michel\AppData\Local\Temp\s7ic.2 \
  -Mdist/default/production/minuteur.production.map -E1 -ver=XC8 \
  -ASTACK=02024h-023efh -pstack=STACK -ACODE=00h-07FFhx4 \
  -ASTRCODE=00h-01FFFh -ASTRING=00h-0FFhx32 -ACONST=00h-0FFhx32 \
  -AENTRY=00h-0FFhx32 -ACOMMON=070h-07Fh -ABANK0=020h-06Fh \
  -ABANK1=0A0h-0EFh -ABANK2=0120h-016Fh -ABANK3=01A0h-01EFh \
  -ABANK4=0220h-026Fh -ABANK5=02A0h-02EFh -ABANK6=0320h-036Fh \
  -ABANK7=03A0h-03EFh -ABANK8=0420h-046Fh -ABANK9=04A0h-04EFh \
  -ABANK10=0520h-056Fh -ABANK11=05A0h-05EFh -ABANK12=0620h-064Fh \
  -ABIGRAM=02000h-023EFh \
  -ARAM=020h-06Fh,0A0h-0EFh,0120h-016Fh,01A0h-01EFh,0220h-026Fh,02A0h-02EFh,0320h-036Fh,03A0h-03EFh,0420h-046Fh,04A0h-04EFh,0520h-056Fh,05A0h-05EFh,0620h-064Fh \
  -AABS1=020h-07Fh,0A0h-0EFh,0120h-016Fh,01A0h-01EFh,0220h-026Fh,02A0h-02EFh,0320h-036Fh,03A0h-03EFh,0420h-046Fh,04A0h-04EFh,0520h-056Fh,05A0h-05EFh,0620h-064Fh \
  -ASFR0=00h-01Fh -ASFR1=080h-09Fh -ASFR2=0100h-011Fh -ASFR3=0180h-019Fh \
  -ASFR4=0200h-021Fh -ASFR5=0280h-029Fh -ASFR6=0300h-031Fh \
  -ASFR7=0380h-039Fh -ASFR8=0400h-041Fh -ASFR9=0480h-049Fh \
  -ASFR10=0500h-051Fh -ASFR11=0580h-059Fh -ASFR12=0600h-061Fh \
  -ASFR13=0680h-06EFh -ASFR14=0700h-076Fh -ASFR15=0780h-07EFh \
  -ASFR16=0800h-086Fh -ASFR17=0880h-08EFh -ASFR18=0900h-096Fh \
  -ASFR19=0980h-09EFh -ASFR20=0A00h-0A6Fh -ASFR21=0A80h-0AEFh \
  -ASFR22=0B00h-0B6Fh -ASFR23=0B80h-0BEFh -ASFR24=0C00h-0C6Fh \
  -ASFR25=0C80h-0CEFh -ASFR26=0D00h-0D6Fh -ASFR27=0D80h-0DEFh \
  -ASFR28=0E00h-0E6Fh -ASFR29=0E80h-0EEFh -ASFR30=0F00h-0F6Fh \
  -ASFR31=0F80h-0FEFh -preset_vec=00h,intentry=04h,init,end_init \
  -ppowerup=CODE -pcinit=CODE -pfunctab=CODE -ACONFIG=08007h-0800Ah \
  -pconfig=CONFIG -DCONFIG=2 -AIDLOC=08000h-08003h -pidloc=IDLOC -DIDLOC=2 \
  -AEEDATA=00h-0FFh/0F000h -peeprom_data=EEDATA -DEEDATA=2 -DCODE=2 \
  -DSTRCODE=2 -DSTRING=2 -DCONST=2 -DENTRY=2 -k \
  C:\Users\Michel\AppData\Local\Temp\s7ic.obj \
  dist/default/production\minuteur.production.obj 

Object code version is 3.11

Machine type is 16F18345



                Name                               Link     Load   Length Selector   Space Scale
C:\Users\Michel\AppData\Local\Temp\s7ic.obj
                end_init                              D        D        2        8       0
                reset_vec                             0        0        2        0       0
                config                             8007     8007        4    1000E       0
dist/default/production\minuteur.production.obj
                cinit                                 F        F        5        8       0
                intentry                              4        4        9        8       0
                swtext2                             510      510       10      A00       0
                text19                              410      410       4F      3B4       0
                text18                              549      549        D      A40       0
                text17                              570      570        7      A40       0
                text16                              520      520        F      A40       0
                text15                              57D      57D        6      A40       0
                text14                              55F      55F        9      A40       0
                swtext1                             500      500       10      A00       0
                text13                              3BB      3BB       55      3B4       0
                text12                              53C      53C        D      A40       0
                text11                              556      556        9      A40       0
                text10                              45F      45F       34      3B4       0
                text9                               493      493       2D      3B4       0
                text8                               568      568        8      A40       0
                text7                               1DA      1DA       E4      3B4       0
                text6                               4E5      4E5       16      3B4       0
                text5                               4C0      4C0       25      3B4       0
                text4                               2BE      2BE       8C      3B4       0
                text3                               52F      52F        D      A40       0
                text2                               34A      34A       71      3B4       0
                text1                               577      577        6      A40       0
                maintext                            583      583        4      A40       0
                cstackBANK0                          20       20       24       20       1
                cstackCOMMON                         70       70        C       70       1
                bssCOMMON                            7C       7C        1       70       1
                stringtext                           14       14      1C6       28       0

TOTAL           Name                               Link     Load   Length     Space
        CLASS   STACK          

        CLASS   CODE           
                end_init                              D        D        2         0
                cinit                                 F        F        5         0
                intentry                              4        4        9         0
                reset_vec                             0        0        2         0
                text19                              410      410       4F         0
                text18                              549      549        D         0
                text17                              570      570        7         0
                text16                              520      520        F         0
                text15                              57D      57D        6         0
                text14                              55F      55F        9         0
                text13                              3BB      3BB       55         0
                text12                              53C      53C        D         0
                text11                              556      556        9         0
                text10                              45F      45F       34         0
                text9                               493      493       2D         0
                text8                               568      568        8         0
                text7                               1DA      1DA       E4         0
                text6                               4E5      4E5       16         0
                text5                               4C0      4C0       25         0
                text4                               2BE      2BE       8C         0
                text3                               52F      52F        D         0
                text2                               34A      34A       71         0
                text1                               577      577        6         0
                maintext                            583      583        4         0

        CLASS   STRCODE        
                stringtext                           14       14      1C6         0

        CLASS   STRING         

        CLASS   CONST          
                swtext2                             510      510       10         0
                swtext1                             500      500       10         0

        CLASS   ENTRY          

        CLASS   COMMON         
                cstackCOMMON                         70       70        C         1
                bssCOMMON                            7C       7C        1         1

        CLASS   BANK0          
                cstackBANK0                          20       20       24         1

        CLASS   BANK1          

        CLASS   BANK2          

        CLASS   BANK3          

        CLASS   BANK4          

        CLASS   BANK5          

        CLASS   BANK6          

        CLASS   BANK7          

        CLASS   BANK8          

        CLASS   BANK9          

        CLASS   BANK10         

        CLASS   BANK11         

        CLASS   BANK12         

        CLASS   BIGRAM         

        CLASS   RAM            

        CLASS   ABS1           
                abs_s1                               7E       7E        2         1

        CLASS   SFR0           

        CLASS   SFR1           

        CLASS   SFR2           

        CLASS   SFR3           

        CLASS   SFR4           

        CLASS   SFR5           

        CLASS   SFR6           

        CLASS   SFR7           

        CLASS   SFR8           

        CLASS   SFR9           

        CLASS   SFR10          

        CLASS   SFR11          

        CLASS   SFR12          

        CLASS   SFR13          

        CLASS   SFR14          

        CLASS   SFR15          

        CLASS   SFR16          

        CLASS   SFR17          

        CLASS   SFR18          

        CLASS   SFR19          

        CLASS   SFR20          

        CLASS   SFR21          

        CLASS   SFR22          

        CLASS   SFR23          

        CLASS   SFR24          

        CLASS   SFR25          

        CLASS   SFR26          

        CLASS   SFR27          

        CLASS   SFR28          

        CLASS   SFR29          

        CLASS   SFR30          

        CLASS   SFR31          

        CLASS   CONFIG         
                config                             8007     8007        4         0

        CLASS   IDLOC          

        CLASS   EEDATA         

        CLASS   BANK31         

        CLASS   BANK30         

        CLASS   BANK29         

        CLASS   BANK28         

        CLASS   BANK27         

        CLASS   BANK26         

        CLASS   BANK25         

        CLASS   BANK24         

        CLASS   BANK23         

        CLASS   BANK22         

        CLASS   BANK21         

        CLASS   BANK20         

        CLASS   BANK19         

        CLASS   BANK18         

        CLASS   BANK17         

        CLASS   BANK16         

        CLASS   BANK15         

        CLASS   BANK14         

        CLASS   BANK13         



SEGMENTS        Name                           Load    Length   Top    Selector   Space  Class     Delta

                reset_vec                      000000  000002  000002         0       0  CODE        2
                intentry                       000004  000010  000014         8       0  CODE        2
                cstackBANK0                    000020  000024  000044        20       1  BANK0       1
                stringtext                     000014  0001C6  0001DA        28       0  STRCODE     2
                cstackCOMMON                   000070  00000D  00007D        70       1  COMMON      1
                text7                          0001DA  000321  0004FB       3B4       0  CODE        2
                swtext1                        000500  000020  000520       A00       0  CONST       2
                text16                         000520  000067  000587       A40       0  CODE        2
                config                         008007  000004  00800B     1000E       0  CONFIG      2


UNUSED ADDRESS RANGES

        Name                Unused          Largest block    Delta
        BANK0            00044-0006F              2C           1
        BANK1            000A0-000EF              50           1
        BANK10           00520-0056F              50           1
        BANK11           005A0-005EF              50           1
        BANK12           00620-0064F              30           1
        BANK2            00120-0016F              50           1
        BANK3            001A0-001EF              50           1
        BANK4            00220-0026F              50           1
        BANK5            002A0-002EF              50           1
        BANK6            00320-0036F              50           1
        BANK7            003A0-003EF              50           1
        BANK8            00420-0046F              50           1
        BANK9            004A0-004EF              50           1
        BIGRAM           02000-023EF             3F0           1
        CODE             00002-00003               2           2
                         004FB-004FF               5
                         00587-01FFF             800
        COMMON           0007D-0007D               1           1
        CONST            00002-00003               2           2
                         004FB-004FF               5
                         00587-01FFF             100
        EEDATA           0F000-0F0FF             100           2
        ENTRY            00002-00003               2           2
                         004FB-004FF               5
                         00587-01FFF             100
        IDLOC            08000-08003               4           2
        RAM              00044-0006F              2C           1
                         000A0-000EF              50
                         00120-0016F              50
                         001A0-001EF              50
                         00220-0026F              50
                         002A0-002EF              50
                         00320-0036F              50
                         003A0-003EF              50
                         00420-0046F              50
                         004A0-004EF              50
                         00520-0056F              50
                         005A0-005EF              50
                         00620-0064F              30
        SFR0             00000-0001F              20           1
        SFR1             00080-0009F              20           1
        SFR10            00500-0051F              20           1
        SFR11            00580-0059F              20           1
        SFR12            00600-0061F              20           1
        SFR13            00680-006EF              70           1
        SFR14            00700-0076F              70           1
        SFR15            00780-007EF              70           1
        SFR16            00800-0086F              70           1
        SFR17            00880-008EF              70           1
        SFR18            00900-0096F              70           1
        SFR19            00980-009EF              70           1
        SFR2             00100-0011F              20           1
        SFR20            00A00-00A6F              70           1
        SFR21            00A80-00AEF              70           1
        SFR22            00B00-00B6F              70           1
        SFR23            00B80-00BEF              70           1
        SFR24            00C00-00C6F              70           1
        SFR25            00C80-00CEF              70           1
        SFR26            00D00-00D6F              70           1
        SFR27            00D80-00DEF              70           1
        SFR28            00E00-00E6F              70           1
        SFR29            00E80-00EEF              70           1
        SFR3             00180-0019F              20           1
        SFR30            00F00-00F6F              70           1
        SFR31            00F80-00FEF              70           1
        SFR4             00200-0021F              20           1
        SFR5             00280-0029F              20           1
        SFR6             00300-0031F              20           1
        SFR7             00380-0039F              20           1
        SFR8             00400-0041F              20           1
        SFR9             00480-0049F              20           1
        STACK            02024-023EF             3CC           1
        STRCODE          00002-00003               2           2
                         004FB-004FF               5
                         00587-01FFF            1A79
        STRING           00002-00003               2           2
                         004FB-004FF               5
                         00587-01FFF             100

                                  Symbol Table

?___lwdiv                            cstackCOMMON 00071
?___lwmod                            cstackBANK0  00020
?_flag_array_valid                   cstackBANK0  0003E
?_printf                             cstackBANK0  00024
?_time_type_valid                    cstackCOMMON 00071
_PORTA                               (abs)        0000C
_PORTB                               (abs)        0000D
_PORTC                               (abs)        0000E
_RB6                                 (abs)        0006E
_SPEN                                (abs)        00CEF
_SYNC                                (abs)        00CF4
_TXEN                                (abs)        00CF5
_TXIF                                (abs)        0008C
_TXREG                               (abs)        0019A
__CFG_BOREN$OFF                      (abs)        00000
__CFG_BORV$LOW                       (abs)        00000
__CFG_CLKOUTEN$OFF                   (abs)        00000
__CFG_CP$OFF                         (abs)        00000
__CFG_CPD$OFF                        (abs)        00000
__CFG_CSWEN$OFF                      (abs)        00000
__CFG_DEBUG$OFF                      (abs)        00000
__CFG_FCMEN$OFF                      (abs)        00000
__CFG_FEXTOSC$LP                     (abs)        00000
__CFG_LPBOREN$OFF                    (abs)        00000
__CFG_LVP$ON                         (abs)        00000
__CFG_MCLRE$ON                       (abs)        00000
__CFG_PPS1WAY$ON                     (abs)        00000
__CFG_PWRTE$OFF                      (abs)        00000
__CFG_RSTOSC$SOSC                    (abs)        00000
__CFG_STVREN$ON                      (abs)        00000
__CFG_WDTE$OFF                       (abs)        00000
__CFG_WRT$OFF                        (abs)        00000
__Habs1                              abs1         00000
__Hbank0                             bank0        00000
__Hbank1                             bank1        00000
__Hbank10                            bank10       00000
__Hbank11                            bank11       00000
__Hbank12                            bank12       00000
__Hbank13                            bank13       00000
__Hbank14                            bank14       00000
__Hbank15                            bank15       00000
__Hbank16                            bank16       00000
__Hbank17                            bank17       00000
__Hbank18                            bank18       00000
__Hbank19                            bank19       00000
__Hbank2                             bank2        00000
__Hbank20                            bank20       00000
__Hbank21                            bank21       00000
__Hbank22                            bank22       00000
__Hbank23                            bank23       00000
__Hbank24                            bank24       00000
__Hbank25                            bank25       00000
__Hbank26                            bank26       00000
__Hbank27                            bank27       00000
__Hbank28                            bank28       00000
__Hbank29                            bank29       00000
__Hbank3                             bank3        00000
__Hbank30                            bank30       00000
__Hbank31                            bank31       00000
__Hbank4                             bank4        00000
__Hbank5                             bank5        00000
__Hbank6                             bank6        00000
__Hbank7                             bank7        00000
__Hbank8                             bank8        00000
__Hbank9                             bank9        00000
__Hbigram                            bigram       00000
__HbssCOMMON                         bssCOMMON    00000
__Hcinit                             cinit        00014
__Hclrtext                           clrtext      00000
__Hcode                              code         00000
__Hcommon                            common       00000
__Hconfig                            config       0800B
__HcstackBANK0                       cstackBANK0  00000
__HcstackCOMMON                      cstackCOMMON 00000
__Heeprom_data                       eeprom_data  00000
__Hend_init                          end_init     0000F
__Hfunctab                           functab      00000
__Hidloc                             idloc        00000
__Hinit                              init         0000D
__Hintentry                          intentry     0000D
__Hmaintext                          maintext     00000
__Hpowerup                           powerup      00000
__Hram                               ram          00000
__Hreset_vec                         reset_vec    00002
__Hsfr0                              sfr0         00000
__Hsfr1                              sfr1         00000
__Hsfr10                             sfr10        00000
__Hsfr11                             sfr11        00000
__Hsfr12                             sfr12        00000
__Hsfr13                             sfr13        00000
__Hsfr14                             sfr14        00000
__Hsfr15                             sfr15        00000
__Hsfr16                             sfr16        00000
__Hsfr17                             sfr17        00000
__Hsfr18                             sfr18        00000
__Hsfr19                             sfr19        00000
__Hsfr2                              sfr2         00000
__Hsfr20                             sfr20        00000
__Hsfr21                             sfr21        00000
__Hsfr22                             sfr22        00000
__Hsfr23                             sfr23        00000
__Hsfr24                             sfr24        00000
__Hsfr25                             sfr25        00000
__Hsfr26                             sfr26        00000
__Hsfr27                             sfr27        00000
__Hsfr28                             sfr28        00000
__Hsfr29                             sfr29        00000
__Hsfr3                              sfr3         00000
__Hsfr30                             sfr30        00000
__Hsfr31                             sfr31        00000
__Hsfr4                              sfr4         00000
__Hsfr5                              sfr5         00000
__Hsfr6                              sfr6         00000
__Hsfr7                              sfr7         00000
__Hsfr8                              sfr8         00000
__Hsfr9                              sfr9         00000
__Hspace_0                           (abs)        0800B
__Hspace_1                           (abs)        0007D
__Hspace_2                           (abs)        00000
__Hspace_3                           (abs)        00000
__Hstack                             stack        00000
__Hstrings                           strings      00000
__Hstringtext                        stringtext   00000
__Htext                              text         00000
__Labs1                              abs1         00000
__Lbank0                             bank0        00000
__Lbank1                             bank1        00000
__Lbank10                            bank10       00000
__Lbank11                            bank11       00000
__Lbank12                            bank12       00000
__Lbank13                            bank13       00000
__Lbank14                            bank14       00000
__Lbank15                            bank15       00000
__Lbank16                            bank16       00000
__Lbank17                            bank17       00000
__Lbank18                            bank18       00000
__Lbank19                            bank19       00000
__Lbank2                             bank2        00000
__Lbank20                            bank20       00000
__Lbank21                            bank21       00000
__Lbank22                            bank22       00000
__Lbank23                            bank23       00000
__Lbank24                            bank24       00000
__Lbank25                            bank25       00000
__Lbank26                            bank26       00000
__Lbank27                            bank27       00000
__Lbank28                            bank28       00000
__Lbank29                            bank29       00000
__Lbank3                             bank3        00000
__Lbank30                            bank30       00000
__Lbank31                            bank31       00000
__Lbank4                             bank4        00000
__Lbank5                             bank5        00000
__Lbank6                             bank6        00000
__Lbank7                             bank7        00000
__Lbank8                             bank8        00000
__Lbank9                             bank9        00000
__Lbigram                            bigram       00000
__LbssCOMMON                         bssCOMMON    00000
__Lcinit                             cinit        0000F
__Lclrtext                           clrtext      00000
__Lcode                              code         00000
__Lcommon                            common       00000
__Lconfig                            config       08007
__LcstackBANK0                       cstackBANK0  00000
__LcstackCOMMON                      cstackCOMMON 00000
__Leeprom_data                       eeprom_data  00000
__Lend_init                          end_init     0000D
__Lfunctab                           functab      00000
__Lidloc                             idloc        00000
__Linit                              init         0000D
__Lintentry                          intentry     00004
__Lmaintext                          maintext     00000
__Lpowerup                           powerup      00000
__Lram                               ram          00000
__Lreset_vec                         reset_vec    00000
__Lsfr0                              sfr0         00000
__Lsfr1                              sfr1         00000
__Lsfr10                             sfr10        00000
__Lsfr11                             sfr11        00000
__Lsfr12                             sfr12        00000
__Lsfr13                             sfr13        00000
__Lsfr14                             sfr14        00000
__Lsfr15                             sfr15        00000
__Lsfr16                             sfr16        00000
__Lsfr17                             sfr17        00000
__Lsfr18                             sfr18        00000
__Lsfr19                             sfr19        00000
__Lsfr2                              sfr2         00000
__Lsfr20                             sfr20        00000
__Lsfr21                             sfr21        00000
__Lsfr22                             sfr22        00000
__Lsfr23                             sfr23        00000
__Lsfr24                             sfr24        00000
__Lsfr25                             sfr25        00000
__Lsfr26                             sfr26        00000
__Lsfr27                             sfr27        00000
__Lsfr28                             sfr28        00000
__Lsfr29                             sfr29        00000
__Lsfr3                              sfr3         00000
__Lsfr30                             sfr30        00000
__Lsfr31                             sfr31        00000
__Lsfr4                              sfr4         00000
__Lsfr5                              sfr5         00000
__Lsfr6                              sfr6         00000
__Lsfr7                              sfr7         00000
__Lsfr8                              sfr8         00000
__Lsfr9                              sfr9         00000
__Lspace_0                           (abs)        00000
__Lspace_1                           (abs)        00000
__Lspace_2                           (abs)        00000
__Lspace_3                           (abs)        00000
__Lstack                             stack        00000
__Lstrings                           strings      00000
__Lstringtext                        stringtext   00000
__Ltext                              text         00000
__S0                                 (abs)        0800B
__S1                                 (abs)        0007D
__S2                                 (abs)        00000
__S3                                 (abs)        00000
___int_sp                            stack        00000
___latbits                           (abs)        00002
___lwdiv                             text10       0045F
___lwdiv@counter                     cstackCOMMON 00076
___lwdiv@dividend                    cstackCOMMON 00073
___lwdiv@divisor                     cstackCOMMON 00071
___lwdiv@quotient                    cstackCOMMON 00077
___lwmod                             text9        00493
___lwmod@counter                     cstackCOMMON 0007A
___lwmod@dividend                    cstackBANK0  00022
___lwmod@divisor                     cstackBANK0  00020
___sp                                stack        00000
__end_of___lwdiv                     text10       00493
__end_of___lwmod                     text9        004C0
__end_of__fassert                    text6        004FB
__end_of__initialization             cinit        00010
__end_of_byte_union_get_bit_value    text19       0045F
__end_of_byte_union_get_byte         text17       00577
__end_of_byte_union_initialize       text15       00583
__end_of_byte_union_set_bit          text13       00410
__end_of_byte_union_set_byte         text16       0052F
__end_of_dpowers                     stringtext   0001E
__end_of_flag_array_get_flag_state   text18       00556
__end_of_flag_array_initialise       text14       00568
__end_of_flag_array_set_flag         text12       00549
__end_of_flag_array_set_numbers      text11       0055F
__end_of_flag_array_valid            text5        004E5
__end_of_input_interrupt_function    intentry     0000D
__end_of_main                        maintext     00587
__end_of_printf                      text7        002BE
__end_of_putch                       text8        00570
__end_of_test_function               text1        0057D
__end_of_test_of_flag_array          text4        0034A
__end_of_test_of_time_type           text2        003BB
__end_of_time_type_valid             text3        0053C
__fassert                            text6        004E5
__fassert@exp                        cstackBANK0  0003C
__fassert@file                       cstackBANK0  0003A
__fassert@line                       cstackBANK0  00038
__initialization                     cinit        0000F
__pbssCOMMON                         bssCOMMON    0007C
__pcstackBANK0                       cstackBANK0  00020
__pcstackCOMMON                      cstackCOMMON 00070
__pintentry                          intentry     00004
__pmaintext                          maintext     00583
__pstringtext                        stringtext   00014
__pswtext1                           swtext1      00500
__pswtext2                           swtext2      00510
__ptext1                             text1        00577
__ptext10                            text10       0045F
__ptext11                            text11       00556
__ptext12                            text12       0053C
__ptext13                            text13       003BB
__ptext14                            text14       0055F
__ptext15                            text15       0057D
__ptext16                            text16       00520
__ptext17                            text17       00570
__ptext18                            text18       00549
__ptext19                            text19       00410
__ptext2                             text2        0034A
__ptext3                             text3        0052F
__ptext4                             text4        002BE
__ptext5                             text5        004C0
__ptext6                             text6        004E5
__ptext7                             text7        001DA
__ptext8                             text8        00568
__ptext9                             text9        00493
__size_of___lwdiv                    (abs)        00000
__size_of___lwmod                    (abs)        00000
__size_of__fassert                   (abs)        00000
__size_of_byte_union_get_bit_value   (abs)        00000
__size_of_byte_union_get_byte        (abs)        00000
__size_of_byte_union_initialize      (abs)        00000
__size_of_byte_union_set_bit         (abs)        00000
__size_of_byte_union_set_byte        (abs)        00000
__size_of_flag_array_get_flag_state  (abs)        00000
__size_of_flag_array_initialise      (abs)        00000
__size_of_flag_array_set_flag        (abs)        00000
__size_of_flag_array_set_numbers     (abs)        00000
__size_of_flag_array_valid           (abs)        00000
__size_of_input_interrupt_function   (abs)        00000
__size_of_main                       (abs)        00000
__size_of_printf                     (abs)        00000
__size_of_putch                      (abs)        00000
__size_of_test_function              (abs)        00000
__size_of_test_of_flag_array         (abs)        00000
__size_of_test_of_time_type          (abs)        00000
__size_of_time_type_valid            (abs)        00000
_byte_union_get_bit_value            text19       00410
_byte_union_get_byte                 text17       00570
_byte_union_initialize               text15       0057D
_byte_union_set_bit                  text13       003BB
_byte_union_set_byte                 text16       00520
_dpowers                             stringtext   00014
_flag_array_get_flag_state           text18       00549
_flag_array_initialise               text14       0055F
_flag_array_set_flag                 text12       0053C
_flag_array_set_numbers              text11       00556
_flag_array_valid                    text5        004C0
_input_interrupt_function            intentry     00004
_interrupt_variable                  bssCOMMON    0007C
_main                                maintext     00583
_printf                              text7        001DA
_putch                               text8        00568
_test_function                       text1        00577
_test_of_flag_array                  text4        002BE
_test_of_time_type                   text2        0034A
_time_type_valid                     text3        0052F
btemp                                (abs)        0007E
byte_union_get_bit_value@bit_nbr     cstackCOMMON 00071
byte_union_get_bit_value@byte_u      cstackCOMMON 00073
byte_union_get_bit_value@val         cstackCOMMON 00072
byte_union_get_byte@byte_u           cstackCOMMON 00073
byte_union_get_byte@ptb              cstackCOMMON 00072
byte_union_initialize@byte_u         cstackCOMMON 00078
byte_union_set_bit@bit_nbr           cstackCOMMON 00072
byte_union_set_bit@byte_u            cstackCOMMON 00073
byte_union_set_bit@state             cstackCOMMON 00071
byte_union_set_byte@byte_u           cstackCOMMON 00077
byte_union_set_byte@ptb              cstackCOMMON 00076
byte_union_set_byte@val              cstackCOMMON 00074
end_of_initialization                cinit        00010
flag_array_get_flag_state@flag_array cstackCOMMON 00078
flag_array_get_flag_state@name       cstackCOMMON 00074
flag_array_get_flag_state@val        cstackCOMMON 00077
flag_array_initialise@flag_array     cstackCOMMON 00079
flag_array_set_flag@flag_array       cstackCOMMON 00078
flag_array_set_flag@name             cstackCOMMON 00075
flag_array_set_flag@state            cstackCOMMON 00074
flag_array_set_numbers@flag_array    cstackCOMMON 00073
flag_array_set_numbers@nbr           cstackCOMMON 00071
flag_array_valid@flag_array          cstackCOMMON 0007B
int$flags                            (abs)        0007E
intlevel0                            functab      00000
intlevel1                            functab      00000
intlevel2                            functab      00000
intlevel3                            functab      00000
intlevel4                            functab      00000
intlevel5                            functab      00000
ltemp                                (abs)        0007E
ltemp0                               (abs)        0007E
ltemp1                               (abs)        00082
ltemp2                               (abs)        00086
ltemp3                               (abs)        00080
printf@ap                            cstackBANK0  00032
printf@c                             cstackBANK0  00037
printf@cp                            cstackBANK0  00033
printf@f                             cstackBANK0  00024
printf@flag                          cstackBANK0  00030
printf@prec                          cstackBANK0  00031
printf@val                           cstackBANK0  00035
putch@data                           cstackCOMMON 00071
reset_vec                            reset_vec    00000
stackhi                              (abs)        023EF
stacklo                              (abs)        02024
start                                init         0000D
start_initialization                 cinit        0000F
test_of_flag_array@array             cstackBANK0  00042
test_of_time_type@i                  cstackBANK0  00039
test_of_time_type@type               cstackBANK0  00038
time_type_valid@type                 cstackCOMMON 00074
ttemp                                (abs)        0007E
ttemp0                               (abs)        0007E
ttemp1                               (abs)        00081
ttemp2                               (abs)        00084
ttemp3                               (abs)        00087
ttemp4                               (abs)        0007F
wtemp                                (abs)        0007E
wtemp0                               (abs)        0007E
wtemp1                               (abs)        00080
wtemp2                               (abs)        00082
wtemp3                               (abs)        00084
wtemp4                               (abs)        00086
wtemp5                               (abs)        00088
wtemp6                               (abs)        0007F


FUNCTION INFORMATION:

 *************** function _main *****************
 Defined at:
		line 14 in file "main.c"
 Parameters:    Size  Location     Type
		None
 Auto vars:     Size  Location     Type
		None
 Return value:  Size  Location     Type
                  2    4[None  ] int 
 Registers used:
		wreg, fsr0l, fsr0h, fsr1l, fsr1h, status,2, status,0, pclath, cstack
 Tracked objects:
		On entry : 
		On exit  : 
		Unchanged: 
 Data sizes:     COMMON   BANK0   BANK1   BANK2   BANK3   BANK4   BANK5   BANK6   BANK7   BANK8   BANK9  BANK10  BANK11  BANK12
      Params:         0       0       0       0       0       0       0       0       0       0       0       0       0       0
      Locals:         0       0       0       0       0       0       0       0       0       0       0       0       0       0
      Temps:          0       0       0       0       0       0       0       0       0       0       0       0       0       0
      Totals:         0       0       0       0       0       0       0       0       0       0       0       0       0       0
Total ram usage:        0 bytes
 Hardware stack levels required when called:    7
 This function calls:
		_test_function
 This function is called by:
		Startup code after reset
 This function uses a non-reentrant model


 *************** function _test_function *****************
 Defined at:
		line 50 in file "functions_test.c"
 Parameters:    Size  Location     Type
		None
 Auto vars:     Size  Location     Type
		None
 Return value:  Size  Location     Type
                  1    wreg      void 
 Registers used:
		wreg, fsr0l, fsr0h, fsr1l, fsr1h, status,2, status,0, pclath, cstack
 Tracked objects:
		On entry : 
		On exit  : 
		Unchanged: 
 Data sizes:     COMMON   BANK0   BANK1   BANK2   BANK3   BANK4   BANK5   BANK6   BANK7   BANK8   BANK9  BANK10  BANK11  BANK12
      Params:         0       0       0       0       0       0       0       0       0       0       0       0       0       0
      Locals:         0       0       0       0       0       0       0       0       0       0       0       0       0       0
      Temps:          0       0       0       0       0       0       0       0       0       0       0       0       0       0
      Totals:         0       0       0       0       0       0       0       0       0       0       0       0       0       0
Total ram usage:        0 bytes
 Hardware stack levels used:    1
 Hardware stack levels required when called:    6
 This function calls:
		_test_of_flag_array
		_test_of_time_type
 This function is called by:
		_main
 This function uses a non-reentrant model


 *************** function _test_of_time_type *****************
 Defined at:
		line 5 in file "functions_test.c"
 Parameters:    Size  Location     Type
		None
 Auto vars:     Size  Location     Type
  i               2   25[BANK0 ] int 
  type            1   24[BANK0 ] enum E189
 Return value:  Size  Location     Type
                  1    wreg      void 
 Registers used:
		wreg, fsr0l, fsr0h, fsr1l, fsr1h, status,2, status,0, pclath, cstack
 Tracked objects:
		On entry : 
		On exit  : 
		Unchanged: 
 Data sizes:     COMMON   BANK0   BANK1   BANK2   BANK3   BANK4   BANK5   BANK6   BANK7   BANK8   BANK9  BANK10  BANK11  BANK12
      Params:         0       0       0       0       0       0       0       0       0       0       0       0       0       0
      Locals:         0       3       0       0       0       0       0       0       0       0       0       0       0       0
      Temps:          1       0       0       0       0       0       0       0       0       0       0       0       0       0
      Totals:         1       3       0       0       0       0       0       0       0       0       0       0       0       0
Total ram usage:        4 bytes
 Hardware stack levels used:    1
 Hardware stack levels required when called:    3
 This function calls:
		_printf
		_time_type_valid
 This function is called by:
		_test_function
 This function uses a non-reentrant model


 *************** function _time_type_valid *****************
 Defined at:
		line 4 in file "time_type.c"
 Parameters:    Size  Location     Type
  type            1    wreg     enum E184
 Auto vars:     Size  Location     Type
  type            1    4[COMMON] enum E184
 Return value:  Size  Location     Type
                  2    1[COMMON] int 
 Registers used:
		wreg, status,2
 Tracked objects:
		On entry : 
		On exit  : 
		Unchanged: 
 Data sizes:     COMMON   BANK0   BANK1   BANK2   BANK3   BANK4   BANK5   BANK6   BANK7   BANK8   BANK9  BANK10  BANK11  BANK12
      Params:         3       0       0       0       0       0       0       0       0       0       0       0       0       0
      Locals:         1       0       0       0       0       0       0       0       0       0       0       0       0       0
      Temps:          0       0       0       0       0       0       0       0       0       0       0       0       0       0
      Totals:         4       0       0       0       0       0       0       0       0       0       0       0       0       0
Total ram usage:        4 bytes
 Hardware stack levels used:    1
 Hardware stack levels required when called:    1
 This function calls:
		Nothing
 This function is called by:
		_test_of_time_type
 This function uses a non-reentrant model


 *************** function _test_of_flag_array *****************
 Defined at:
		line 24 in file "functions_test.c"
 Parameters:    Size  Location     Type
		None
 Auto vars:     Size  Location     Type
  array           2   34[BANK0 ] struct .
 Return value:  Size  Location     Type
                  1    wreg      void 
 Registers used:
		wreg, fsr0l, fsr0h, fsr1l, fsr1h, status,2, status,0, pclath, cstack
 Tracked objects:
		On entry : 
		On exit  : 
		Unchanged: 
 Data sizes:     COMMON   BANK0   BANK1   BANK2   BANK3   BANK4   BANK5   BANK6   BANK7   BANK8   BANK9  BANK10  BANK11  BANK12
      Params:         0       0       0       0       0       0       0       0       0       0       0       0       0       0
      Locals:         0       2       0       0       0       0       0       0       0       0       0       0       0       0
      Temps:          0       1       0       0       0       0       0       0       0       0       0       0       0       0
      Totals:         0       3       0       0       0       0       0       0       0       0       0       0       0       0
Total ram usage:        3 bytes
 Hardware stack levels used:    1
 Hardware stack levels required when called:    5
 This function calls:
		_flag_array_get_flag_state
		_flag_array_initialise
		_flag_array_set_flag
		_flag_array_set_numbers
		_flag_array_valid
		_printf
 This function is called by:
		_test_function
 This function uses a non-reentrant model


 *************** function _flag_array_valid *****************
 Defined at:
		line 6 in file "flag_array.c"
 Parameters:    Size  Location     Type
  flag_array      1    wreg     PTR const struct .
		 -> test_of_flag_array@array(2), 
 Auto vars:     Size  Location     Type
  flag_array      1   11[COMMON] PTR const struct .
		 -> test_of_flag_array@array(2), 
 Return value:  Size  Location     Type
                  2   30[BANK0 ] int 
 Registers used:
		wreg, fsr0l, fsr0h, fsr1l, fsr1h, status,2, status,0, pclath, cstack
 Tracked objects:
		On entry : 
		On exit  : 
		Unchanged: 
 Data sizes:     COMMON   BANK0   BANK1   BANK2   BANK3   BANK4   BANK5   BANK6   BANK7   BANK8   BANK9  BANK10  BANK11  BANK12
      Params:         0       3       0       0       0       0       0       0       0       0       0       0       0       0
      Locals:         1       0       0       0       0       0       0       0       0       0       0       0       0       0
      Temps:          0       0       0       0       0       0       0       0       0       0       0       0       0       0
      Totals:         1       3       0       0       0       0       0       0       0       0       0       0       0       0
Total ram usage:        4 bytes
 Hardware stack levels used:    1
 Hardware stack levels required when called:    4
 This function calls:
		__fassert
 This function is called by:
		_test_of_flag_array
		_software_timer_valid
 This function uses a non-reentrant model


 *************** function __fassert *****************
 Defined at:
		line 8 in file "C:\Program Files (x86)\Microchip\xc8\v1.36\sources\common\assert.c"
 Parameters:    Size  Location     Type
  line            2   24[BANK0 ] int 
  file            2   26[BANK0 ] PTR const unsigned char 
		 -> STR_3(17), STR_1(13), 
  exp             2   28[BANK0 ] PTR const unsigned char 
		 -> STR_4(11), STR_2(16), 
 Auto vars:     Size  Location     Type
		None
 Return value:  Size  Location     Type
                  1    wreg      void 
 Registers used:
		wreg, fsr0l, fsr0h, fsr1l, fsr1h, status,2, status,0, pclath, cstack
 Tracked objects:
		On entry : 
		On exit  : 
		Unchanged: 
 Data sizes:     COMMON   BANK0   BANK1   BANK2   BANK3   BANK4   BANK5   BANK6   BANK7   BANK8   BANK9  BANK10  BANK11  BANK12
      Params:         0       6       0       0       0       0       0       0       0       0       0       0       0       0
      Locals:         0       0       0       0       0       0       0       0       0       0       0       0       0       0
      Temps:          0       0       0       0       0       0       0       0       0       0       0       0       0       0
      Totals:         0       6       0       0       0       0       0       0       0       0       0       0       0       0
Total ram usage:        6 bytes
 Hardware stack levels used:    1
 Hardware stack levels required when called:    3
 This function calls:
		_printf
 This function is called by:
		_flag_array_valid
		_software_timer_valid
 This function uses a non-reentrant model


 *************** function _printf *****************
 Defined at:
		line 464 in file "C:\Program Files (x86)\Microchip\xc8\v1.36\sources\common\doprnt.c"
 Parameters:    Size  Location     Type
  f               2    4[BANK0 ] PTR const unsigned char 
		 -> STR_21(36), STR_19(30), STR_18(35), STR_17(24), 
		 -> STR_16(29), STR_15(27), STR_14(32), STR_13(21), 
		 -> STR_12(26), STR_11(26), STR_10(31), STR_9(7), 
		 -> STR_8(9), STR_7(11), STR_6(11), STR_5(25), 
 Auto vars:     Size  Location     Type
  tmpval          4    0        struct .
  val             2   21[BANK0 ] unsigned int 
  cp              2   19[BANK0 ] PTR const unsigned char 
		 -> STR_20(7), STR_4(11), STR_3(17), STR_2(16), 
		 -> STR_1(13), 
  len             2    0        unsigned int 
  c               1   23[BANK0 ] char 
  ap              1   18[BANK0 ] PTR void [1]
		 -> ?_printf(2), 
  prec            1   17[BANK0 ] char 
  flag            1   16[BANK0 ] unsigned char 
 Return value:  Size  Location     Type
                  2    4[BANK0 ] int 
 Registers used:
		wreg, fsr0l, fsr0h, fsr1l, fsr1h, status,2, status,0, pclath, cstack
 Tracked objects:
		On entry : 
		On exit  : 
		Unchanged: 
 Data sizes:     COMMON   BANK0   BANK1   BANK2   BANK3   BANK4   BANK5   BANK6   BANK7   BANK8   BANK9  BANK10  BANK11  BANK12
      Params:         0       8       0       0       0       0       0       0       0       0       0       0       0       0
      Locals:         0       8       0       0       0       0       0       0       0       0       0       0       0       0
      Temps:          0       4       0       0       0       0       0       0       0       0       0       0       0       0
      Totals:         0      20       0       0       0       0       0       0       0       0       0       0       0       0
Total ram usage:       20 bytes
 Hardware stack levels used:    1
 Hardware stack levels required when called:    2
 This function calls:
		___lwdiv
		___lwmod
		_putch
 This function is called by:
		_test_of_time_type
		_test_of_flag_array
		__fassert
 This function uses a non-reentrant model


 *************** function _putch *****************
 Defined at:
		line 3 in file "hardware_config.c"
 Parameters:    Size  Location     Type
  data            1    wreg     unsigned char 
 Auto vars:     Size  Location     Type
  data            1    1[COMMON] unsigned char 
 Return value:  Size  Location     Type
                  1    wreg      void 
 Registers used:
		wreg
 Tracked objects:
		On entry : 
		On exit  : 
		Unchanged: 
 Data sizes:     COMMON   BANK0   BANK1   BANK2   BANK3   BANK4   BANK5   BANK6   BANK7   BANK8   BANK9  BANK10  BANK11  BANK12
      Params:         0       0       0       0       0       0       0       0       0       0       0       0       0       0
      Locals:         1       0       0       0       0       0       0       0       0       0       0       0       0       0
      Temps:          0       0       0       0       0       0       0       0       0       0       0       0       0       0
      Totals:         1       0       0       0       0       0       0       0       0       0       0       0       0       0
Total ram usage:        1 bytes
 Hardware stack levels used:    1
 Hardware stack levels required when called:    1
 This function calls:
		Nothing
 This function is called by:
		_printf
 This function uses a non-reentrant model


 *************** function ___lwmod *****************
 Defined at:
		line 6 in file "C:\Program Files (x86)\Microchip\xc8\v1.36\sources\common\lwmod.c"
 Parameters:    Size  Location     Type
  divisor         2    0[BANK0 ] unsigned int 
  dividend        2    2[BANK0 ] unsigned int 
 Auto vars:     Size  Location     Type
  counter         1   10[COMMON] unsigned char 
 Return value:  Size  Location     Type
                  2    0[BANK0 ] unsigned int 
 Registers used:
		wreg, status,2, status,0
 Tracked objects:
		On entry : 
		On exit  : 
		Unchanged: 
 Data sizes:     COMMON   BANK0   BANK1   BANK2   BANK3   BANK4   BANK5   BANK6   BANK7   BANK8   BANK9  BANK10  BANK11  BANK12
      Params:         0       4       0       0       0       0       0       0       0       0       0       0       0       0
      Locals:         1       0       0       0       0       0       0       0       0       0       0       0       0       0
      Temps:          1       0       0       0       0       0       0       0       0       0       0       0       0       0
      Totals:         2       4       0       0       0       0       0       0       0       0       0       0       0       0
Total ram usage:        6 bytes
 Hardware stack levels used:    1
 Hardware stack levels required when called:    1
 This function calls:
		Nothing
 This function is called by:
		_printf
 This function uses a non-reentrant model


 *************** function ___lwdiv *****************
 Defined at:
		line 6 in file "C:\Program Files (x86)\Microchip\xc8\v1.36\sources\common\lwdiv.c"
 Parameters:    Size  Location     Type
  divisor         2    1[COMMON] unsigned int 
  dividend        2    3[COMMON] unsigned int 
 Auto vars:     Size  Location     Type
  quotient        2    7[COMMON] unsigned int 
  counter         1    6[COMMON] unsigned char 
 Return value:  Size  Location     Type
                  2    1[COMMON] unsigned int 
 Registers used:
		wreg, status,2, status,0
 Tracked objects:
		On entry : 
		On exit  : 
		Unchanged: 
 Data sizes:     COMMON   BANK0   BANK1   BANK2   BANK3   BANK4   BANK5   BANK6   BANK7   BANK8   BANK9  BANK10  BANK11  BANK12
      Params:         4       0       0       0       0       0       0       0       0       0       0       0       0       0
      Locals:         3       0       0       0       0       0       0       0       0       0       0       0       0       0
      Temps:          1       0       0       0       0       0       0       0       0       0       0       0       0       0
      Totals:         8       0       0       0       0       0       0       0       0       0       0       0       0       0
Total ram usage:        8 bytes
 Hardware stack levels used:    1
 Hardware stack levels required when called:    1
 This function calls:
		Nothing
 This function is called by:
		_printf
 This function uses a non-reentrant model


 *************** function _flag_array_set_numbers *****************
 Defined at:
		line 40 in file "flag_array.c"
 Parameters:    Size  Location     Type
  flag_array      1    wreg     PTR struct .
		 -> test_of_flag_array@array(2), 
  nbr             1    1[COMMON] unsigned char 
 Auto vars:     Size  Location     Type
  flag_array      1    3[COMMON] PTR struct .
		 -> test_of_flag_array@array(2), 
 Return value:  Size  Location     Type
                  1    wreg      void 
 Registers used:
		wreg, fsr1l, fsr1h
 Tracked objects:
		On entry : 
		On exit  : 
		Unchanged: 
 Data sizes:     COMMON   BANK0   BANK1   BANK2   BANK3   BANK4   BANK5   BANK6   BANK7   BANK8   BANK9  BANK10  BANK11  BANK12
      Params:         1       0       0       0       0       0       0       0       0       0       0       0       0       0
      Locals:         1       0       0       0       0       0       0       0       0       0       0       0       0       0
      Temps:          1       0       0       0       0       0       0       0       0       0       0       0       0       0
      Totals:         3       0       0       0       0       0       0       0       0       0       0       0       0       0
Total ram usage:        3 bytes
 Hardware stack levels used:    1
 Hardware stack levels required when called:    1
 This function calls:
		Nothing
 This function is called by:
		_test_of_flag_array
 This function uses a non-reentrant model


 *************** function _flag_array_set_flag *****************
 Defined at:
		line 14 in file "flag_array.c"
 Parameters:    Size  Location     Type
  flag_array      1    wreg     PTR struct .
		 -> test_of_flag_array@array(2), 
  state           1    4[COMMON] unsigned char 
  name            1    5[COMMON] unsigned char 
 Auto vars:     Size  Location     Type
  flag_array      1    8[COMMON] PTR struct .
		 -> test_of_flag_array@array(2), 
 Return value:  Size  Location     Type
                  1    wreg      void 
 Registers used:
		wreg, fsr0l, fsr0h, fsr1l, fsr1h, status,2, status,0, pclath, cstack
 Tracked objects:
		On entry : 
		On exit  : 
		Unchanged: 
 Data sizes:     COMMON   BANK0   BANK1   BANK2   BANK3   BANK4   BANK5   BANK6   BANK7   BANK8   BANK9  BANK10  BANK11  BANK12
      Params:         2       0       0       0       0       0       0       0       0       0       0       0       0       0
      Locals:         1       0       0       0       0       0       0       0       0       0       0       0       0       0
      Temps:          2       0       0       0       0       0       0       0       0       0       0       0       0       0
      Totals:         5       0       0       0       0       0       0       0       0       0       0       0       0       0
Total ram usage:        5 bytes
 Hardware stack levels used:    1
 Hardware stack levels required when called:    2
 This function calls:
		_byte_union_set_bit
 This function is called by:
		_test_of_flag_array
		_software_timer_set_enable
		_software_timer_clear_overflow
		_software_timer_initialize
		_software_timer_update
 This function uses a non-reentrant model


 *************** function _byte_union_set_bit *****************
 Defined at:
		line 80 in file "byte_union.c"
 Parameters:    Size  Location     Type
  byte_u          1    wreg     PTR struct .
		 -> test_of_flag_array@array(2), 
  state           1    1[COMMON] unsigned char 
  bit_nbr         1    2[COMMON] unsigned char 
 Auto vars:     Size  Location     Type
  byte_u          1    3[COMMON] PTR struct .
		 -> test_of_flag_array@array(2), 
 Return value:  Size  Location     Type
                  1    wreg      void 
 Registers used:
		wreg, fsr0l, fsr0h, fsr1l, fsr1h, status,2, status,0
 Tracked objects:
		On entry : 
		On exit  : 
		Unchanged: 
 Data sizes:     COMMON   BANK0   BANK1   BANK2   BANK3   BANK4   BANK5   BANK6   BANK7   BANK8   BANK9  BANK10  BANK11  BANK12
      Params:         2       0       0       0       0       0       0       0       0       0       0       0       0       0
      Locals:         1       0       0       0       0       0       0       0       0       0       0       0       0       0
      Temps:          0       0       0       0       0       0       0       0       0       0       0       0       0       0
      Totals:         3       0       0       0       0       0       0       0       0       0       0       0       0       0
Total ram usage:        3 bytes
 Hardware stack levels used:    1
 Hardware stack levels required when called:    1
 This function calls:
		Nothing
 This function is called by:
		_flag_array_set_flag
 This function uses a non-reentrant model


 *************** function _flag_array_initialise *****************
 Defined at:
		line 28 in file "flag_array.c"
 Parameters:    Size  Location     Type
  flag_array      1    wreg     PTR struct .
		 -> test_of_flag_array@array(2), 
 Auto vars:     Size  Location     Type
  flag_array      1    9[COMMON] PTR struct .
		 -> test_of_flag_array@array(2), 
 Return value:  Size  Location     Type
                  1    wreg      void 
 Registers used:
		wreg, fsr1l, fsr1h, status,2, status,0, pclath, cstack
 Tracked objects:
		On entry : 
		On exit  : 
		Unchanged: 
 Data sizes:     COMMON   BANK0   BANK1   BANK2   BANK3   BANK4   BANK5   BANK6   BANK7   BANK8   BANK9  BANK10  BANK11  BANK12
      Params:         0       0       0       0       0       0       0       0       0       0       0       0       0       0
      Locals:         1       0       0       0       0       0       0       0       0       0       0       0       0       0
      Temps:          0       0       0       0       0       0       0       0       0       0       0       0       0       0
      Totals:         1       0       0       0       0       0       0       0       0       0       0       0       0       0
Total ram usage:        1 bytes
 Hardware stack levels used:    1
 Hardware stack levels required when called:    4
 This function calls:
		_byte_union_initialize
 This function is called by:
		_test_of_flag_array
 This function uses a non-reentrant model


 *************** function _byte_union_initialize *****************
 Defined at:
		line 115 in file "byte_union.c"
 Parameters:    Size  Location     Type
  byte_u          1    wreg     PTR struct .
		 -> test_of_flag_array@array(2), 
 Auto vars:     Size  Location     Type
  byte_u          1    8[COMMON] PTR struct .
		 -> test_of_flag_array@array(2), 
 Return value:  Size  Location     Type
                  1    wreg      void 
 Registers used:
		wreg, fsr1l, fsr1h, status,2, status,0, pclath, cstack
 Tracked objects:
		On entry : 
		On exit  : 
		Unchanged: 
 Data sizes:     COMMON   BANK0   BANK1   BANK2   BANK3   BANK4   BANK5   BANK6   BANK7   BANK8   BANK9  BANK10  BANK11  BANK12
      Params:         0       0       0       0       0       0       0       0       0       0       0       0       0       0
      Locals:         1       0       0       0       0       0       0       0       0       0       0       0       0       0
      Temps:          0       0       0       0       0       0       0       0       0       0       0       0       0       0
      Totals:         1       0       0       0       0       0       0       0       0       0       0       0       0       0
Total ram usage:        1 bytes
 Hardware stack levels used:    1
 Hardware stack levels required when called:    3
 This function calls:
		_byte_union_set_byte
 This function is called by:
		_flag_array_initialise
 This function uses a non-reentrant model


 *************** function _byte_union_set_byte *****************
 Defined at:
		line 68 in file "byte_union.c"
 Parameters:    Size  Location     Type
  byte_u          1    wreg     PTR struct .
		 -> test_of_flag_array@array(2), 
  val             1    4[COMMON] unsigned char 
 Auto vars:     Size  Location     Type
  byte_u          1    7[COMMON] PTR struct .
		 -> test_of_flag_array@array(2), 
  ptb             1    6[COMMON] PTR unsigned char 
		 -> test_of_flag_array@array(2), byte_union_get_byte@byte_u(1), 
 Return value:  Size  Location     Type
                  1    wreg      void 
 Registers used:
		wreg, fsr1l, fsr1h, pclath, cstack
 Tracked objects:
		On entry : 
		On exit  : 
		Unchanged: 
 Data sizes:     COMMON   BANK0   BANK1   BANK2   BANK3   BANK4   BANK5   BANK6   BANK7   BANK8   BANK9  BANK10  BANK11  BANK12
      Params:         1       0       0       0       0       0       0       0       0       0       0       0       0       0
      Locals:         2       0       0       0       0       0       0       0       0       0       0       0       0       0
      Temps:          1       0       0       0       0       0       0       0       0       0       0       0       0       0
      Totals:         4       0       0       0       0       0       0       0       0       0       0       0       0       0
Total ram usage:        4 bytes
 Hardware stack levels used:    1
 Hardware stack levels required when called:    2
 This function calls:
		_byte_union_get_byte
 This function is called by:
		_byte_union_initialize
 This function uses a non-reentrant model


 *************** function _byte_union_get_byte *****************
 Defined at:
		line 43 in file "byte_union.c"
 Parameters:    Size  Location     Type
  byte_u          1    wreg     PTR struct .
		 -> test_of_flag_array@array(2), 
 Auto vars:     Size  Location     Type
  byte_u          1    3[COMMON] PTR struct .
		 -> test_of_flag_array@array(2), 
  ptb             1    2[COMMON] PTR unsigned char 
		 -> test_of_flag_array@array(2), byte_union_get_byte@byte_u(1), 
 Return value:  Size  Location     Type
                  1    wreg      PTR unsigned char 
 Registers used:
		wreg
 Tracked objects:
		On entry : 
		On exit  : 
		Unchanged: 
 Data sizes:     COMMON   BANK0   BANK1   BANK2   BANK3   BANK4   BANK5   BANK6   BANK7   BANK8   BANK9  BANK10  BANK11  BANK12
      Params:         0       0       0       0       0       0       0       0       0       0       0       0       0       0
      Locals:         2       0       0       0       0       0       0       0       0       0       0       0       0       0
      Temps:          1       0       0       0       0       0       0       0       0       0       0       0       0       0
      Totals:         3       0       0       0       0       0       0       0       0       0       0       0       0       0
Total ram usage:        3 bytes
 Hardware stack levels used:    1
 Hardware stack levels required when called:    1
 This function calls:
		Nothing
 This function is called by:
		_byte_union_set_byte
 This function uses a non-reentrant model


 *************** function _flag_array_get_flag_state *****************
 Defined at:
		line 52 in file "flag_array.c"
 Parameters:    Size  Location     Type
  flag_array      1    wreg     PTR const struct .
		 -> test_of_flag_array@array(2), 
  name            1    4[COMMON] unsigned char 
 Auto vars:     Size  Location     Type
  flag_array      1    8[COMMON] PTR const struct .
		 -> test_of_flag_array@array(2), 
  val             1    7[COMMON] unsigned char 
 Return value:  Size  Location     Type
                  1    wreg      unsigned char 
 Registers used:
		wreg, fsr0l, fsr0h, fsr1l, fsr1h, status,2, status,0, pclath, cstack
 Tracked objects:
		On entry : 
		On exit  : 
		Unchanged: 
 Data sizes:     COMMON   BANK0   BANK1   BANK2   BANK3   BANK4   BANK5   BANK6   BANK7   BANK8   BANK9  BANK10  BANK11  BANK12
      Params:         1       0       0       0       0       0       0       0       0       0       0       0       0       0
      Locals:         2       0       0       0       0       0       0       0       0       0       0       0       0       0
      Temps:          2       0       0       0       0       0       0       0       0       0       0       0       0       0
      Totals:         5       0       0       0       0       0       0       0       0       0       0       0       0       0
Total ram usage:        5 bytes
 Hardware stack levels used:    1
 Hardware stack levels required when called:    2
 This function calls:
		_byte_union_get_bit_value
 This function is called by:
		_test_of_flag_array
		_software_timer_get_enable_value
		_software_timer_get_overflow_value
		_software_timer_update
 This function uses a non-reentrant model


 *************** function _byte_union_get_bit_value *****************
 Defined at:
		line 4 in file "byte_union.c"
 Parameters:    Size  Location     Type
  byte_u          1    wreg     PTR const struct .
		 -> test_of_flag_array@array(2), 
  bit_nbr         1    1[COMMON] unsigned char 
 Auto vars:     Size  Location     Type
  byte_u          1    3[COMMON] PTR const struct .
		 -> test_of_flag_array@array(2), 
  val             1    2[COMMON] unsigned char 
 Return value:  Size  Location     Type
                  1    wreg      unsigned char 
 Registers used:
		wreg, fsr0l, fsr0h, fsr1l, fsr1h, status,2, status,0
 Tracked objects:
		On entry : 
		On exit  : 
		Unchanged: 
 Data sizes:     COMMON   BANK0   BANK1   BANK2   BANK3   BANK4   BANK5   BANK6   BANK7   BANK8   BANK9  BANK10  BANK11  BANK12
      Params:         1       0       0       0       0       0       0       0       0       0       0       0       0       0
      Locals:         2       0       0       0       0       0       0       0       0       0       0       0       0       0
      Temps:          0       0       0       0       0       0       0       0       0       0       0       0       0       0
      Totals:         3       0       0       0       0       0       0       0       0       0       0       0       0       0
Total ram usage:        3 bytes
 Hardware stack levels used:    1
 Hardware stack levels required when called:    1
 This function calls:
		Nothing
 This function is called by:
		_flag_array_get_flag_state
 This function uses a non-reentrant model


 *************** function _input_interrupt_function *****************
 Defined at:
		line 67 in file "input.c"
 Parameters:    Size  Location     Type
		None
 Auto vars:     Size  Location     Type
		None
 Return value:  Size  Location     Type
                  1    wreg      void 
 Registers used:
		None
 Tracked objects:
		On entry : 
		On exit  : 
		Unchanged: 
 Data sizes:     COMMON   BANK0   BANK1   BANK2   BANK3   BANK4   BANK5   BANK6   BANK7   BANK8   BANK9  BANK10  BANK11  BANK12
      Params:         0       0       0       0       0       0       0       0       0       0       0       0       0       0
      Locals:         0       0       0       0       0       0       0       0       0       0       0       0       0       0
      Temps:          1       0       0       0       0       0       0       0       0       0       0       0       0       0
      Totals:         1       0       0       0       0       0       0       0       0       0       0       0       0       0
Total ram usage:        1 bytes
 Hardware stack levels used:    1
 This function calls:
		Nothing
 This function is called by:
		Interrupt level 1
 This function uses a non-reentrant model



MODULE INFORMATION

Module		Function		Class		Link	Load	Size
byte_union.c
		_byte_union_set_bit		CODE           	03BB	0000	86
		_byte_union_initialize		CODE           	057D	0000	7
		_byte_union_get_byte		CODE           	0570	0000	8
		_byte_union_set_byte		CODE           	0520	0000	16
		_byte_union_get_bit_value		CODE           	0410	0000	80

byte_union.c estimated size: 197

input.c
		_input_interrupt_function		CODE           	0004	0000	10

input.c estimated size: 10

flag_array.c
		_flag_array_get_flag_state		CODE           	0549	0000	14
		_flag_array_set_flag		CODE           	053C	0000	14
		_flag_array_set_numbers		CODE           	0556	0000	10
		_flag_array_valid		CODE           	04C0	0000	38
		_flag_array_initialise		CODE           	055F	0000	10

flag_array.c estimated size: 86

C:\Program Files (x86)\Microchip\xc8\v1.36\sources\common\doprnt.c
		_printf        		CODE           	01DA	0000	229

C:\Program Files (x86)\Microchip\xc8\v1.36\sources\common\doprnt.c estimated size: 229

hardware_config.c
		_putch         		CODE           	0568	0000	9

hardware_config.c estimated size: 9

C:\Program Files (x86)\Microchip\xc8\v1.36\sources\common\lwmod.c
		___lwmod       		CODE           	0493	0000	46

C:\Program Files (x86)\Microchip\xc8\v1.36\sources\common\lwmod.c estimated size: 46

shared
		_dpowers       		STRCODE        	0014	0000	11
		__initialization		CODE           	000F	0000	2

shared estimated size: 13

functions_test.c
		_test_of_time_type		CODE           	034A	0000	114
		_test_function 		CODE           	0577	0000	7
		_test_of_flag_array		CODE           	02BE	0000	141

functions_test.c estimated size: 262

time_type.c
		_time_type_valid		CODE           	052F	0000	14

time_type.c estimated size: 14

C:\Program Files (x86)\Microchip\xc8\v1.36\sources\common\assert.c
		__fassert      		CODE           	04E5	0000	23

C:\Program Files (x86)\Microchip\xc8\v1.36\sources\common\assert.c estimated size: 23

main.c
		_main          		CODE           	0583	0000	5

main.c estimated size: 5

C:\Program Files (x86)\Microchip\xc8\v1.36\sources\common\lwdiv.c
		___lwdiv       		CODE           	045F	0000	53

C:\Program Files (x86)\Microchip\xc8\v1.36\sources\common\lwdiv.c estimated size: 53

